; Function Attrs: mustprogress nobuiltin allocsize(0) uwtable
define dso_local noundef nonnull ptr @_Znwm(i64 noundef %0) local_unnamed_addr #8 personality ptr @__gxx_personality_v0 {
  %2 = load ptr, ptr @_ZN6google10g_new_hookE, align 8
  %.not.i = icmp eq ptr %2, null
  br i1 %.not.i, label %_ZnwmRKSt9nothrow_t.exit, label %3

3:                                                ; preds = %1
  invoke void %2()
          to label %_ZnwmRKSt9nothrow_t.exit unwind label %4

4:                                                ; preds = %3
  %5 = landingpad { ptr, i32 }
          catch ptr null
  %6 = extractvalue { ptr, i32 } %5, 0
  tail call void @__clang_call_terminate(ptr %6) #25
  unreachable

_ZnwmRKSt9nothrow_t.exit:                         ; preds = %1, %3
  %7 = tail call noalias noundef ptr @malloc(i64 noundef %0) #26
  %8 = icmp eq ptr %7, null
  br i1 %8, label %9, label %11

9:                                                ; preds = %_ZnwmRKSt9nothrow_t.exit
  %10 = tail call ptr @__cxa_allocate_exception(i64 8) #23
  store ptr getelementptr inbounds ({ [5 x ptr] }, ptr @_ZTVSt9bad_alloc, i64 0, i32 0, i64 2), ptr %10, align 8
  tail call void @__cxa_throw(ptr nonnull %10, ptr nonnull @_ZTISt9bad_alloc, ptr nonnull @_ZNSt9bad_allocD1Ev) #24
  unreachable

11:                                               ; preds = %_ZnwmRKSt9nothrow_t.exit
  ret ptr %7
}